target datalayout = "e-m:e-p270:32:32-p271:32:32-p272:64:64-i64:64-i128:128-f80:128-n8:16:32:64-S128"
target triple = "x86_64-pc-linux-gnu"

%struct.AVFormatContext = type { ptr, ptr, ptr, ptr, ptr, i32, i32, ptr, i32, ptr, i32, ptr, ptr, i64, i64, i64, i32, i32, i32, i64, i64, ptr, i32, i32, ptr, i32, i32, i32, i32, ptr, i64, i32, i32, %struct.AVIOInterruptCB, i32, i32, i32, i32, i64, i32, i32, i32, i32, i32, i32, i32, i32, i32, i32, i32, i32, i64, i32, i32, i32, i32, i32, ptr, ptr, ptr, ptr, i32, ptr, ptr, ptr, ptr, i32, ptr, ptr, i64, ptr, ptr, ptr, i64 }
%struct.AVIOInterruptCB = type { ptr, ptr }
%struct.AVStream = type { ptr, i32, i32, ptr, ptr, %struct.AVRational, i64, i64, i64, i32, i32, %struct.AVRational, ptr, %struct.AVRational, %struct.AVPacket, i32, %struct.AVRational, i32 }
%struct.AVPacket = type { ptr, i64, i64, ptr, i32, i32, i32, ptr, i32, i64, i64, ptr, ptr, %struct.AVRational }
%struct.AVRational = type { i32, i32 }
%struct.AVCodecParameters = type { i32, i32, i32, ptr, i32, ptr, i32, i32, i64, i32, i32, i32, i32, i32, i32, %struct.AVRational, %struct.AVRational, i32, i32, i32, i32, i32, i32, i32, %struct.AVChannelLayout, i32, i32, i32, i32, i32, i32 }
%struct.AVChannelLayout = type { i32, i32, %union.anon, ptr }
%union.anon = type { i64 }
%struct.XWMAContext = type { i64 }

; Function Attrs: alwaysinline nounwind uwtable
define internal i64 @avio_tell(ptr noundef %0) #4 {
  %2 = alloca ptr, align 8
  store ptr %0, ptr %2, align 8, !tbaa !33
  %3 = load ptr, ptr %2, align 8, !tbaa !33
  %4 = call i64 @avio_seek(ptr noundef %3, i64 noundef 0, i32 noundef 1)
  ret i64 %4
}

; Function Attrs: nounwind uwtable
define internal i32 @xwma_read_packet(ptr noundef %0, ptr noundef %1) #0 {
  %3 = alloca i32, align 4
  %4 = alloca ptr, align 8
  %5 = alloca ptr, align 8
  %6 = alloca i32, align 4
  %7 = alloca i32, align 4
  %8 = alloca i64, align 8
  %9 = alloca ptr, align 8
  %10 = alloca ptr, align 8
  %11 = alloca i32, align 4
  store ptr %0, ptr %4, align 8, !tbaa !13
  store ptr %1, ptr %5, align 8, !tbaa !78
  call void @llvm.lifetime.start.p0(i64 4, ptr %6) #8
  call void @llvm.lifetime.start.p0(i64 4, ptr %7) #8
  call void @llvm.lifetime.start.p0(i64 8, ptr %8) #8
  call void @llvm.lifetime.start.p0(i64 8, ptr %9) #8
  call void @llvm.lifetime.start.p0(i64 8, ptr %10) #8
  %12 = load ptr, ptr %4, align 8, !tbaa !13
  %13 = getelementptr inbounds nuw %struct.AVFormatContext, ptr %12, i32 0, i32 3
  %14 = load ptr, ptr %13, align 8, !tbaa !34
  store ptr %14, ptr %10, align 8, !tbaa !35
  %15 = load ptr, ptr %4, align 8, !tbaa !13
  %16 = getelementptr inbounds nuw %struct.AVFormatContext, ptr %15, i32 0, i32 7
  %17 = load ptr, ptr %16, align 8, !tbaa !80
  %18 = getelementptr inbounds ptr, ptr %17, i64 0
  %19 = load ptr, ptr %18, align 8, !tbaa !38
  store ptr %19, ptr %9, align 8, !tbaa !38
  %20 = load ptr, ptr %10, align 8, !tbaa !35
  %21 = getelementptr inbounds nuw %struct.XWMAContext, ptr %20, i32 0, i32 0
  %22 = load i64, ptr %21, align 8, !tbaa !73
  %23 = load ptr, ptr %4, align 8, !tbaa !13
  %24 = getelementptr inbounds nuw %struct.AVFormatContext, ptr %23, i32 0, i32 4
  %25 = load ptr, ptr %24, align 8, !tbaa !18
  %26 = call i64 @avio_tell(ptr noundef %25)
  %27 = sub nsw i64 %22, %26
  store i64 %27, ptr %8, align 8, !tbaa !37
  %28 = load i64, ptr %8, align 8, !tbaa !37
  %29 = icmp sle i64 %28, 0
  br i1 %29, label %30, label %31

30:                                               ; preds = %2
  store i32 -541478725, ptr %3, align 4
  store i32 1, ptr %11, align 4
  br label %73

31:                                               ; preds = %2
  %32 = load ptr, ptr %9, align 8, !tbaa !38
  %33 = getelementptr inbounds nuw %struct.AVStream, ptr %32, i32 0, i32 3
  %34 = load ptr, ptr %33, align 8, !tbaa !40
  %35 = getelementptr inbounds nuw %struct.AVCodecParameters, ptr %34, i32 0, i32 26
  %36 = load i32, ptr %35, align 4, !tbaa !76
  %37 = icmp sgt i32 %36, 1
  br i1 %37, label %38, label %44

38:                                               ; preds = %31
  %39 = load ptr, ptr %9, align 8, !tbaa !38
  %40 = getelementptr inbounds nuw %struct.AVStream, ptr %39, i32 0, i32 3
  %41 = load ptr, ptr %40, align 8, !tbaa !40
  %42 = getelementptr inbounds nuw %struct.AVCodecParameters, ptr %41, i32 0, i32 26
  %43 = load i32, ptr %42, align 4, !tbaa !76
  br label %45

44:                                               ; preds = %31
  br label %45

45:                                               ; preds = %44, %38
  %46 = phi i32 [ %43, %38 ], [ 2230, %44 ]
  store i32 %46, ptr %7, align 4, !tbaa !15
  %47 = load i32, ptr %7, align 4, !tbaa !15
  %48 = sext i32 %47 to i64
  %49 = load i64, ptr %8, align 8, !tbaa !37
  %50 = icmp sgt i64 %48, %49
  br i1 %50, label %51, label %53

51:                                               ; preds = %45
  %52 = load i64, ptr %8, align 8, !tbaa !37
  br label %56

53:                                               ; preds = %45
  %54 = load i32, ptr %7, align 4, !tbaa !15
  %55 = sext i32 %54 to i64
  br label %56

56:                                               ; preds = %53, %51
  %57 = phi i64 [ %52, %51 ], [ %55, %53 ]
  %58 = trunc i64 %57 to i32
  store i32 %58, ptr %7, align 4, !tbaa !15
  %59 = load ptr, ptr %4, align 8, !tbaa !13
  %60 = getelementptr inbounds nuw %struct.AVFormatContext, ptr %59, i32 0, i32 4
  %61 = load ptr, ptr %60, align 8, !tbaa !18
  %62 = load ptr, ptr %5, align 8, !tbaa !78
  %63 = load i32, ptr %7, align 4, !tbaa !15
  %64 = call i32 @av_get_packet(ptr noundef %61, ptr noundef %62, i32 noundef %63)
  store i32 %64, ptr %6, align 4, !tbaa !15
  %65 = load i32, ptr %6, align 4, !tbaa !15
  %66 = icmp slt i32 %65, 0
  br i1 %66, label %67, label %69

67:                                               ; preds = %56
  %68 = load i32, ptr %6, align 4, !tbaa !15
  store i32 %68, ptr %3, align 4
  store i32 1, ptr %11, align 4
  br label %73

69:                                               ; preds = %56
  %70 = load ptr, ptr %5, align 8, !tbaa !78
  %71 = getelementptr inbounds nuw %struct.AVPacket, ptr %70, i32 0, i32 5
  store i32 0, ptr %71, align 4, !tbaa !81
  %72 = load i32, ptr %6, align 4, !tbaa !15
  store i32 %72, ptr %3, align 4
  store i32 1, ptr %11, align 4
  br label %73

73:                                               ; preds = %69, %67, %30
  call void @llvm.lifetime.end.p0(i64 8, ptr %10) #8
  call void @llvm.lifetime.end.p0(i64 8, ptr %9) #8
  call void @llvm.lifetime.end.p0(i64 8, ptr %8) #8
  call void @llvm.lifetime.end.p0(i64 4, ptr %7) #8
  call void @llvm.lifetime.end.p0(i64 4, ptr %6) #8
  %74 = load i32, ptr %3, align 4
  ret i32 %74
}