; Function Attrs: nounwind uwtable
define internal i32 @xwma_read_packet(ptr noundef readonly captures(none) %0, ptr noundef %1) #1 {
  %3 = getelementptr inbounds nuw i8, ptr %0, i64 24
  %4 = load ptr, ptr %3, align 8, !tbaa !26
  %5 = getelementptr inbounds nuw i8, ptr %0, i64 48
  %6 = load ptr, ptr %5, align 8, !tbaa !67
  %7 = load ptr, ptr %6, align 8, !tbaa !68
  %8 = load i64, ptr %4, align 8, !tbaa !62
  %9 = getelementptr inbounds nuw i8, ptr %0, i64 32
  %10 = load ptr, ptr %9, align 8, !tbaa !11
  %11 = tail call i64 @avio_seek(ptr noundef %10, i64 noundef 0, i32 noundef 1) #7
  %12 = sub nsw i64 %8, %11
  %13 = icmp slt i64 %12, 1
  br i1 %13, label %27, label %14

14:                                               ; preds = %2
  %15 = getelementptr inbounds nuw i8, ptr %7, i64 16
  %16 = load ptr, ptr %15, align 8, !tbaa !27
  %17 = getelementptr inbounds nuw i8, ptr %16, i64 156
  %18 = load i32, ptr %17, align 4, !tbaa !65
  %19 = icmp sgt i32 %18, 1
  %narrow = select i1 %19, i32 %18, i32 2230
  %spec.select = zext i32 %narrow to i64
  %20 = tail call i64 @llvm.umin.i64(i64 %spec.select, i64 %12)
  %21 = trunc nuw i64 %20 to i32
  %22 = load ptr, ptr %9, align 8, !tbaa !11
  %23 = tail call i32 @av_get_packet(ptr noundef %22, ptr noundef %1, i32 noundef %21) #7
  %24 = icmp slt i32 %23, 0
  br i1 %24, label %27, label %25

25:                                               ; preds = %14
  %26 = getelementptr inbounds nuw i8, ptr %1, i64 36
  store i32 0, ptr %26, align 4, !tbaa !70
  br label %27

27:                                               ; preds = %14, %2, %25
  %.0 = phi i32 [ %23, %25 ], [ -541478725, %2 ], [ %23, %14 ]
  ret i32 %.0
}